target datalayout = "e-m:e-p270:32:32-p271:32:32-p272:64:64-i64:64-i128:128-f80:128-n8:16:32:64-S128"
target triple = "x86_64-pc-linux-gnu"

%struct.AVHWDeviceContext = type { ptr, i32, ptr, ptr, ptr }
%struct.AVVAAPIDeviceContext = type { ptr, i32 }
%struct.AVHWFramesContext = type { ptr, ptr, ptr, ptr, ptr, ptr, ptr, i32, i32, i32, i32, i32 }

@.str.67 = private unnamed_addr constant [41 x i8] c"Failed to destroy surface %#x: %d (%s).\0A\00", align 1

; Function Attrs: nounwind uwtable
define internal void @vaapi_buffer_free(ptr noundef %0, ptr noundef %1) #0 {
  %3 = alloca ptr, align 8
  %4 = alloca ptr, align 8
  %5 = alloca ptr, align 8
  %6 = alloca ptr, align 8
  %7 = alloca i32, align 4
  %8 = alloca i32, align 4
  store ptr %0, ptr %3, align 8, !tbaa !15
  store ptr %1, ptr %4, align 8, !tbaa !9
  call void @llvm.lifetime.start.p0(i64 8, ptr %5) #10
  %9 = load ptr, ptr %3, align 8, !tbaa !15
  store ptr %9, ptr %5, align 8, !tbaa !97
  call void @llvm.lifetime.start.p0(i64 8, ptr %6) #10
  %10 = load ptr, ptr %5, align 8, !tbaa !97
  %11 = getelementptr inbounds nuw %struct.AVHWFramesContext, ptr %10, i32 0, i32 2
  %12 = load ptr, ptr %11, align 8, !tbaa !107
  %13 = getelementptr inbounds nuw %struct.AVHWDeviceContext, ptr %12, i32 0, i32 2
  %14 = load ptr, ptr %13, align 8, !tbaa !43
  store ptr %14, ptr %6, align 8, !tbaa !52
  call void @llvm.lifetime.start.p0(i64 4, ptr %7) #10
  call void @llvm.lifetime.start.p0(i64 4, ptr %8) #10
  %15 = load ptr, ptr %4, align 8, !tbaa !9
  %16 = ptrtoint ptr %15 to i64
  %17 = trunc i64 %16 to i32
  store i32 %17, ptr %7, align 4, !tbaa !13
  %18 = load ptr, ptr %6, align 8, !tbaa !52
  %19 = getelementptr inbounds nuw %struct.AVVAAPIDeviceContext, ptr %18, i32 0, i32 0
  %20 = load ptr, ptr %19, align 8, !tbaa !56
  %21 = call i32 @vaDestroySurfaces(ptr noundef %20, ptr noundef %7, i32 noundef 1)
  store i32 %21, ptr %8, align 4, !tbaa !13
  %22 = load i32, ptr %8, align 4, !tbaa !13
  %23 = icmp ne i32 %22, 0
  br i1 %23, label %24, label %30

24:                                               ; preds = %2
  %25 = load ptr, ptr %5, align 8, !tbaa !97
  %26 = load i32, ptr %7, align 4, !tbaa !13
  %27 = load i32, ptr %8, align 4, !tbaa !13
  %28 = load i32, ptr %8, align 4, !tbaa !13
  %29 = call ptr @vaErrorStr(i32 noundef %28)
  call void (ptr, i32, ptr, ...) @av_log(ptr noundef %25, i32 noundef 16, ptr noundef @.str.67, i32 noundef %26, i32 noundef %27, ptr noundef %29)
  br label %30

30:                                               ; preds = %24, %2
  call void @llvm.lifetime.end.p0(i64 4, ptr %8) #10
  call void @llvm.lifetime.end.p0(i64 4, ptr %7) #10
  call void @llvm.lifetime.end.p0(i64 8, ptr %6) #10
  call void @llvm.lifetime.end.p0(i64 8, ptr %5) #10
  ret void
}