; Function Attrs: nounwind uwtable
define internal void @vaapi_buffer_free(ptr noundef %0, ptr noundef %1) #0 {
  %3 = alloca i32, align 4
  %4 = getelementptr inbounds nuw i8, ptr %0, i64 16
  %5 = load ptr, ptr %4, align 8, !tbaa !80
  %6 = getelementptr inbounds nuw i8, ptr %5, i64 16
  %7 = load ptr, ptr %6, align 8, !tbaa !31
  call void @llvm.lifetime.start.p0(i64 4, ptr nonnull %3) #11
  %8 = ptrtoint ptr %1 to i64
  %9 = trunc i64 %8 to i32
  store i32 %9, ptr %3, align 4, !tbaa !26
  %10 = load ptr, ptr %7, align 8, !tbaa !34
  %11 = call i32 @vaDestroySurfaces(ptr noundef %10, ptr noundef nonnull %3, i32 noundef 1) #11
  %.not = icmp eq i32 %11, 0
  br i1 %.not, label %15, label %12

12:                                               ; preds = %2
  %13 = load i32, ptr %3, align 4, !tbaa !26
  %14 = call ptr @vaErrorStr(i32 noundef %11) #11
  call void (ptr, i32, ptr, ...) @av_log(ptr noundef nonnull %0, i32 noundef 16, ptr noundef nonnull @.str.67, i32 noundef %13, i32 noundef %11, ptr noundef %14) #11
  br label %15

15:                                               ; preds = %12, %2
  call void @llvm.lifetime.end.p0(i64 4, ptr nonnull %3) #11
  ret void
}